; Function Attrs: nounwind sspstrong uwtable
define internal range(i64 0, 21) i64 @rb_inflate_sync_point_p(i64 noundef %0) #0 {
  %2 = tail call ptr @rb_check_typeddata(i64 noundef %0, ptr noundef nonnull @zstream_data_type) #18
  %3 = load i64, ptr %2, align 8, !tbaa !42
  %4 = and i64 %3, 1
  %.not.i = icmp eq i64 %4, 0
  br i1 %.not.i, label %5, label %get_zstream.exit

5:                                                ; preds = %1
  %6 = load i64, ptr @cZError, align 8, !tbaa !6
  tail call void (i64, ptr, ...) @rb_raise(i64 noundef %6, ptr noundef nonnull @.str.150) #19
  unreachable

get_zstream.exit:                                 ; preds = %1
  %7 = getelementptr inbounds nuw i8, ptr %2, i64 32
  %8 = tail call i32 @inflateSyncPoint(ptr noundef nonnull %7) #18
  switch i32 %8, label %9 [
    i32 1, label %13
    i32 0, label %12
  ]

9:                                                ; preds = %get_zstream.exit
  %10 = getelementptr inbounds nuw i8, ptr %2, i64 80
  %11 = load ptr, ptr %10, align 8, !tbaa !59
  tail call fastcc void @raise_zlib_error(i32 noundef %8, ptr noundef %11) #20
  unreachable

12:                                               ; preds = %get_zstream.exit
  br label %13

13:                                               ; preds = %get_zstream.exit, %12
  %.0 = phi i64 [ 0, %12 ], [ 20, %get_zstream.exit ]
  ret i64 %.0
}